target datalayout = "e-m:e-p270:32:32-p271:32:32-p272:64:64-i64:64-i128:128-f80:128-n8:16:32:64-S128"
target triple = "x86_64-pc-linux-gnu"

%class.G1CommittedRegionMap = type { ptr, %class.CHeapBitMap, %class.CHeapBitMap, i32, i32 }
%class.CHeapBitMap = type <{ %class.GrowableBitMap, i8, [7 x i8] }>
%class.GrowableBitMap = type { %class.BitMap }
%class.BitMap = type { ptr, i64 }

; Function Attrs: mustprogress nounwind uwtable
define linkonce_odr hidden void @_ZN6BitMap13par_set_rangeEmmNS_13RangeSizeHintE(ptr noundef nonnull align 8 dereferenceable(16) %0, i64 noundef %1, i64 noundef %2, i32 noundef %3) #1 comdat align 2 {
  %5 = alloca ptr, align 8
  %6 = alloca i64, align 8
  %7 = alloca i64, align 8
  %8 = alloca i32, align 4
  store ptr %0, ptr %5, align 8
  store i64 %1, ptr %6, align 8
  store i64 %2, ptr %7, align 8
  store i32 %3, ptr %8, align 4
  %9 = load ptr, ptr %5, align 8
  %10 = load i32, ptr %8, align 4
  %11 = icmp eq i32 %10, 1
  br i1 %11, label %12, label %20

12:                                               ; preds = %4
  %13 = load i64, ptr %7, align 8
  %14 = load i64, ptr %6, align 8
  %15 = sub i64 %13, %14
  %16 = icmp eq i64 %15, 1
  br i1 %16, label %17, label %20

17:                                               ; preds = %12
  %18 = load i64, ptr %6, align 8
  %19 = call noundef zeroext i1 @_ZN6BitMap10par_at_putEmb(ptr noundef nonnull align 8 dereferenceable(16) %9, i64 noundef %18, i1 noundef zeroext true)
  br label %30

20:                                               ; preds = %12, %4
  %21 = load i32, ptr %8, align 4
  %22 = icmp eq i32 %21, 2
  br i1 %22, label %23, label %26

23:                                               ; preds = %20
  %24 = load i64, ptr %6, align 8
  %25 = load i64, ptr %7, align 8
  call void @_ZN6BitMap22par_at_put_large_rangeEmmb(ptr noundef nonnull align 8 dereferenceable(16) %9, i64 noundef %24, i64 noundef %25, i1 noundef zeroext true)
  br label %29

26:                                               ; preds = %20
  %27 = load i64, ptr %6, align 8
  %28 = load i64, ptr %7, align 8
  call void @_ZN6BitMap16par_at_put_rangeEmmb(ptr noundef nonnull align 8 dereferenceable(16) %9, i64 noundef %27, i64 noundef %28, i1 noundef zeroext true)
  br label %29

29:                                               ; preds = %26, %23
  br label %30

30:                                               ; preds = %29, %17
  ret void
}

; Function Attrs: mustprogress nounwind uwtable
define hidden void @_ZN20G1CommittedRegionMap18inactive_set_rangeEjj(ptr noundef nonnull align 8 dereferenceable(64) %0, i32 noundef %1, i32 noundef %2) #1 align 2 {
  %4 = alloca ptr, align 8
  %5 = alloca i32, align 4
  %6 = alloca i32, align 4
  store ptr %0, ptr %4, align 8
  store i32 %1, ptr %5, align 4
  store i32 %2, ptr %6, align 4
  %7 = load ptr, ptr %4, align 8
  %8 = load ptr, ptr %7, align 8
  %9 = getelementptr inbounds ptr, ptr %8, i64 1
  %10 = load ptr, ptr %9, align 8
  call void %10(ptr noundef nonnull align 8 dereferenceable(64) %7)
  %11 = getelementptr inbounds %class.G1CommittedRegionMap, ptr %7, i32 0, i32 2
  %12 = load i32, ptr %5, align 4
  %13 = zext i32 %12 to i64
  %14 = load i32, ptr %6, align 4
  %15 = zext i32 %14 to i64
  call void @_ZN6BitMap13par_set_rangeEmmNS_13RangeSizeHintE(ptr noundef nonnull align 8 dereferenceable(16) %11, i64 noundef %13, i64 noundef %15, i32 noundef 0)
  %16 = load i32, ptr %6, align 4
  %17 = load i32, ptr %5, align 4
  %18 = sub i32 %16, %17
  %19 = getelementptr inbounds %class.G1CommittedRegionMap, ptr %7, i32 0, i32 4
  %20 = load i32, ptr %19, align 4
  %21 = add i32 %20, %18
  store i32 %21, ptr %19, align 4
  ret void
}