; Function Attrs: mustprogress nounwind uwtable
define hidden void @_ZN20G1CommittedRegionMap18inactive_set_rangeEjj(ptr noundef nonnull align 8 dereferenceable(64) %0, i32 noundef %1, i32 noundef %2) local_unnamed_addr #1 align 2 {
  %4 = load ptr, ptr %0, align 8
  %5 = getelementptr inbounds i8, ptr %4, i64 8
  %6 = load ptr, ptr %5, align 8
  tail call void %6(ptr noundef nonnull align 8 dereferenceable(64) %0) #10
  %7 = getelementptr inbounds i8, ptr %0, i64 32
  %8 = zext i32 %1 to i64
  %9 = zext i32 %2 to i64
  tail call void @_ZN6BitMap16par_at_put_rangeEmmb(ptr noundef nonnull align 8 dereferenceable(16) %7, i64 noundef %8, i64 noundef %9, i1 noundef zeroext true) #10
  %10 = sub i32 %2, %1
  %11 = getelementptr inbounds i8, ptr %0, i64 60
  %12 = load i32, ptr %11, align 4
  %13 = add i32 %10, %12
  store i32 %13, ptr %11, align 4
  ret void
}